target datalayout = "e-m:e-p270:32:32-p271:32:32-p272:64:64-i64:64-i128:128-f80:128-n8:16:32:64-S128"
target triple = "x86_64-pc-linux-gnu"

%"class.icu_77::UObject" = type { ptr }
%"class.icu_77::UnicodeString" = type { %"class.icu_77::Replaceable", %"union.icu_77::UnicodeString::StackBufferOrFields" }
%"class.icu_77::Replaceable" = type { %"class.icu_77::UObject" }
%"union.icu_77::UnicodeString::StackBufferOrFields" = type { %struct.anon.0, [32 x i8] }
%struct.anon.0 = type { i16, i32, i32, ptr }
%struct.anon = type { i16, [27 x i16] }

@_ZTVN6icu_777UObjectE = available_externally unnamed_addr constant { [5 x ptr] } { [5 x ptr] [ptr null, ptr @_ZTIN6icu_777UObjectE, ptr @_ZN6icu_777UObjectD1Ev, ptr @_ZN6icu_777UObjectD0Ev, ptr @_ZNK6icu_777UObject17getDynamicClassIDEv] }, align 8

; Function Attrs: inlinehint mustprogress nounwind uwtable
define linkonce_odr void @_ZN6icu_777UObjectC2Ev(ptr noundef nonnull align 8 dereferenceable(8) %0) unnamed_addr #5 comdat align 2 {
  %2 = alloca ptr, align 8
  store ptr %0, ptr %2, align 8, !tbaa !146
  %3 = load ptr, ptr %2, align 8
  store ptr getelementptr inbounds inrange(-16, 24) ({ [5 x ptr] }, ptr @_ZTVN6icu_777UObjectE, i32 0, i32 0, i32 2), ptr %3, align 8, !tbaa !10
  ret void
}

; Function Attrs: inlinehint mustprogress nounwind uwtable
define linkonce_odr noundef i32 @_ZNK6icu_7713UnicodeString14getShortLengthEv(ptr noundef nonnull align 8 dereferenceable(64) %0) #5 comdat align 2 {
  %2 = alloca ptr, align 8
  store ptr %0, ptr %2, align 8, !tbaa !60
  %3 = load ptr, ptr %2, align 8
  %4 = getelementptr inbounds nuw %"class.icu_77::UnicodeString", ptr %3, i32 0, i32 1
  %5 = getelementptr inbounds nuw %struct.anon.0, ptr %4, i32 0, i32 0
  %6 = load i16, ptr %5, align 8, !tbaa !61
  %7 = sext i16 %6 to i32
  %8 = ashr i32 %7, 5
  ret i32 %8
}

; Function Attrs: inlinehint mustprogress nounwind uwtable
define linkonce_odr noundef signext i8 @_ZNK6icu_7713UnicodeString14hasShortLengthEv(ptr noundef nonnull align 8 dereferenceable(64) %0) #5 comdat align 2 {
  %2 = alloca ptr, align 8
  store ptr %0, ptr %2, align 8, !tbaa !60
  %3 = load ptr, ptr %2, align 8
  %4 = getelementptr inbounds nuw %"class.icu_77::UnicodeString", ptr %3, i32 0, i32 1
  %5 = getelementptr inbounds nuw %struct.anon.0, ptr %4, i32 0, i32 0
  %6 = load i16, ptr %5, align 8, !tbaa !61
  %7 = sext i16 %6 to i32
  %8 = icmp sge i32 %7, 0
  %9 = zext i1 %8 to i8
  ret i8 %9
}

; Function Attrs: inlinehint mustprogress nounwind uwtable
define linkonce_odr void @_ZN6icu_7711ReplaceableC2Ev(ptr noundef nonnull align 8 dereferenceable(8) %0) unnamed_addr #5 comdat align 2 {
  %2 = alloca ptr, align 8
  store ptr %0, ptr %2, align 8, !tbaa !144
  %3 = load ptr, ptr %2, align 8
  call void @_ZN6icu_777UObjectC2Ev(ptr noundef nonnull align 8 dereferenceable(8) %3) #12
  store ptr getelementptr inbounds inrange(-16, 88) ({ [13 x ptr] }, ptr @_ZTVN6icu_7711ReplaceableE, i32 0, i32 0, i32 2), ptr %3, align 8, !tbaa !10
  ret void
}

; Function Attrs: inlinehint mustprogress uwtable
define linkonce_odr noundef i32 @_ZNK6icu_7713UnicodeString6lengthEv(ptr noundef nonnull align 8 dereferenceable(64) %0) #2 comdat align 2 {
  %2 = alloca ptr, align 8
  store ptr %0, ptr %2, align 8, !tbaa !60
  %3 = load ptr, ptr %2, align 8
  %4 = call noundef signext i8 @_ZNK6icu_7713UnicodeString14hasShortLengthEv(ptr noundef nonnull align 8 dereferenceable(64) %3)
  %5 = icmp ne i8 %4, 0
  br i1 %5, label %6, label %8

6:                                                ; preds = %1
  %7 = call noundef i32 @_ZNK6icu_7713UnicodeString14getShortLengthEv(ptr noundef nonnull align 8 dereferenceable(64) %3)
  br label %12

8:                                                ; preds = %1
  %9 = getelementptr inbounds nuw %"class.icu_77::UnicodeString", ptr %3, i32 0, i32 1
  %10 = getelementptr inbounds nuw %struct.anon.0, ptr %9, i32 0, i32 1
  %11 = load i32, ptr %10, align 4, !tbaa !61
  br label %12

12:                                               ; preds = %8, %6
  %13 = phi i32 [ %7, %6 ], [ %11, %8 ]
  ret i32 %13
}

; Function Attrs: inlinehint mustprogress uwtable
define linkonce_odr void @_ZN6icu_7713UnicodeStringC2Ev(ptr noundef nonnull align 8 dereferenceable(64) %0) unnamed_addr #2 comdat align 2 {
  %2 = alloca ptr, align 8
  store ptr %0, ptr %2, align 8, !tbaa !60
  %3 = load ptr, ptr %2, align 8
  call void @_ZN6icu_7711ReplaceableC2Ev(ptr noundef nonnull align 8 dereferenceable(8) %3)
  store ptr getelementptr inbounds inrange(-16, 88) ({ [13 x ptr] }, ptr @_ZTVN6icu_7713UnicodeStringE, i32 0, i32 0, i32 2), ptr %3, align 8, !tbaa !10
  %4 = getelementptr inbounds nuw %"class.icu_77::UnicodeString", ptr %3, i32 0, i32 1
  %5 = getelementptr inbounds nuw %struct.anon, ptr %4, i32 0, i32 0
  store i16 2, ptr %5, align 8, !tbaa !61
  ret void
}

; Function Attrs: mustprogress uwtable
define void @_ZN6icu_7715RBBIRuleScanner10stripRulesERKNS_13UnicodeStringE(ptr dead_on_unwind noalias writable sret(%"class.icu_77::UnicodeString") align 8 %0, ptr noundef nonnull align 8 dereferenceable(64) %1) #0 align 2 personality ptr @__gxx_personality_v0 {
  %3 = alloca ptr, align 8
  %4 = alloca ptr, align 8
  %5 = alloca i1, align 1
  %6 = alloca i32, align 4
  %7 = alloca ptr, align 8
  %8 = alloca i32, align 4
  %9 = alloca i32, align 4
  %10 = alloca i32, align 4
  %11 = alloca i32, align 4
  %12 = alloca i8, align 1
  store ptr %0, ptr %3, align 8
  store ptr %1, ptr %4, align 8, !tbaa !60
  store i1 false, ptr %5, align 1
  call void @_ZN6icu_7713UnicodeStringC2Ev(ptr noundef nonnull align 8 dereferenceable(64) %0)
  call void @llvm.lifetime.start.p0(i64 4, ptr %6) #12
  %13 = load ptr, ptr %4, align 8, !tbaa !60
  %14 = invoke noundef i32 @_ZNK6icu_7713UnicodeString6lengthEv(ptr noundef nonnull align 8 dereferenceable(64) %13)
          to label %15 unwind label %21

15:                                               ; preds = %2
  store i32 %14, ptr %6, align 4, !tbaa !71
  call void @llvm.lifetime.start.p0(i64 4, ptr %9) #12
  store i32 0, ptr %9, align 4, !tbaa !71
  br label %16

16:                                               ; preds = %57, %15
  %17 = load i32, ptr %9, align 4, !tbaa !71
  %18 = load i32, ptr %6, align 4, !tbaa !71
  %19 = icmp slt i32 %17, %18
  br i1 %19, label %25, label %20

20:                                               ; preds = %16
  store i32 2, ptr %10, align 4
  call void @llvm.lifetime.end.p0(i64 4, ptr %9) #12
  br label %64

21:                                               ; preds = %2
  %22 = landingpad { ptr, i32 }
          cleanup
  %23 = extractvalue { ptr, i32 } %22, 0
  store ptr %23, ptr %7, align 8
  %24 = extractvalue { ptr, i32 } %22, 1
  store i32 %24, ptr %8, align 4
  br label %66

25:                                               ; preds = %16
  call void @llvm.lifetime.start.p0(i64 4, ptr %11) #12
  %26 = load ptr, ptr %4, align 8, !tbaa !60
  %27 = load i32, ptr %9, align 4, !tbaa !71
  %28 = invoke noundef i32 @_ZNK6icu_7713UnicodeString8char32AtEi(ptr noundef nonnull align 8 dereferenceable(64) %26, i32 noundef %27)
          to label %29 unwind label %38

29:                                               ; preds = %25
  store i32 %28, ptr %11, align 4, !tbaa !71
  call void @llvm.lifetime.start.p0(i64 1, ptr %12) #12
  %30 = load i32, ptr %11, align 4, !tbaa !71
  %31 = invoke signext i8 @u_hasBinaryProperty_77(i32 noundef %30, i32 noundef 43)
          to label %32 unwind label %42

32:                                               ; preds = %29
  %33 = icmp ne i8 %31, 0
  %34 = zext i1 %33 to i8
  store i8 %34, ptr %12, align 1, !tbaa !112
  %35 = load i8, ptr %12, align 1, !tbaa !112, !range !114, !noundef !115
  %36 = trunc i8 %35 to i1
  br i1 %36, label %37, label %46

37:                                               ; preds = %32
  store i32 4, ptr %10, align 4
  br label %50

38:                                               ; preds = %25
  %39 = landingpad { ptr, i32 }
          cleanup
  %40 = extractvalue { ptr, i32 } %39, 0
  store ptr %40, ptr %7, align 8
  %41 = extractvalue { ptr, i32 } %39, 1
  store i32 %41, ptr %8, align 4
  br label %58

42:                                               ; preds = %46, %29
  %43 = landingpad { ptr, i32 }
          cleanup
  %44 = extractvalue { ptr, i32 } %43, 0
  store ptr %44, ptr %7, align 8
  %45 = extractvalue { ptr, i32 } %43, 1
  store i32 %45, ptr %8, align 4
  call void @llvm.lifetime.end.p0(i64 1, ptr %12) #12
  br label %58

46:                                               ; preds = %32
  %47 = load i32, ptr %11, align 4, !tbaa !71
  %48 = invoke noundef nonnull align 8 dereferenceable(64) ptr @_ZN6icu_7713UnicodeString6appendEi(ptr noundef nonnull align 8 dereferenceable(64) %0, i32 noundef %47)
          to label %49 unwind label %42

49:                                               ; preds = %46
  store i32 0, ptr %10, align 4
  br label %50

50:                                               ; preds = %49, %37
  call void @llvm.lifetime.end.p0(i64 1, ptr %12) #12
  call void @llvm.lifetime.end.p0(i64 4, ptr %11) #12
  %51 = load i32, ptr %10, align 4
  switch i32 %51, label %74 [
    i32 0, label %52
    i32 4, label %53
  ]

52:                                               ; preds = %50
  br label %53

53:                                               ; preds = %52, %50
  %54 = load ptr, ptr %4, align 8, !tbaa !60
  %55 = load i32, ptr %9, align 4, !tbaa !71
  %56 = invoke noundef i32 @_ZNK6icu_7713UnicodeString11moveIndex32Eii(ptr noundef nonnull align 8 dereferenceable(64) %54, i32 noundef %55, i32 noundef 1)
          to label %57 unwind label %59

57:                                               ; preds = %53
  store i32 %56, ptr %9, align 4, !tbaa !71
  br label %16, !llvm.loop !116

58:                                               ; preds = %42, %38
  call void @llvm.lifetime.end.p0(i64 4, ptr %11) #12
  br label %63

59:                                               ; preds = %53
  %60 = landingpad { ptr, i32 }
          cleanup
  %61 = extractvalue { ptr, i32 } %60, 0
  store ptr %61, ptr %7, align 8
  %62 = extractvalue { ptr, i32 } %60, 1
  store i32 %62, ptr %8, align 4
  br label %63

63:                                               ; preds = %59, %58
  call void @llvm.lifetime.end.p0(i64 4, ptr %9) #12
  br label %66

64:                                               ; preds = %20
  store i1 true, ptr %5, align 1
  store i32 1, ptr %10, align 4
  call void @llvm.lifetime.end.p0(i64 4, ptr %6) #12
  %65 = load i1, ptr %5, align 1
  br i1 %65, label %68, label %67

66:                                               ; preds = %63, %21
  call void @llvm.lifetime.end.p0(i64 4, ptr %6) #12
  call void @_ZN6icu_7713UnicodeStringD1Ev(ptr noundef nonnull align 8 dereferenceable(64) %0) #12
  br label %69

67:                                               ; preds = %64
  call void @_ZN6icu_7713UnicodeStringD1Ev(ptr noundef nonnull align 8 dereferenceable(64) %0) #12
  br label %68

68:                                               ; preds = %67, %64
  ret void

69:                                               ; preds = %66
  %70 = load ptr, ptr %7, align 8
  %71 = load i32, ptr %8, align 4
  %72 = insertvalue { ptr, i32 } poison, ptr %70, 0
  %73 = insertvalue { ptr, i32 } %72, i32 %71, 1
  resume { ptr, i32 } %73

74:                                               ; preds = %50
  unreachable
}