; Function Attrs: mustprogress uwtable
define void @_ZN6icu_7715RBBIRuleScanner10stripRulesERKNS_13UnicodeStringE(ptr dead_on_unwind noalias writable sret(%"class.icu_77::UnicodeString") align 8 initializes((0, 10)) %0, ptr noundef nonnull align 8 dereferenceable(64) %1) local_unnamed_addr #0 align 2 personality ptr @__gxx_personality_v0 {
  store ptr getelementptr inbounds nuw inrange(-16, 88) (i8, ptr @_ZTVN6icu_7713UnicodeStringE, i64 16), ptr %0, align 8, !tbaa !3
  %3 = getelementptr inbounds nuw i8, ptr %0, i64 8
  store i16 2, ptr %3, align 8, !tbaa !11
  %4 = getelementptr inbounds nuw i8, ptr %1, i64 8
  %5 = load i16, ptr %4, align 8, !tbaa !11
  %6 = icmp slt i16 %5, 0
  %7 = ashr i16 %5, 5
  %8 = sext i16 %7 to i32
  %9 = getelementptr inbounds nuw i8, ptr %1, i64 12
  %10 = load i32, ptr %9, align 4
  %11 = select i1 %6, i32 %10, i32 %8
  br label %12

12:                                               ; preds = %2, %25
  %.012 = phi i32 [ 0, %2 ], [ %26, %25 ]
  %13 = icmp slt i32 %.012, %11
  br i1 %13, label %14, label %30

14:                                               ; preds = %12
  %15 = invoke noundef i32 @_ZNK6icu_7713UnicodeString8char32AtEi(ptr noundef nonnull align 8 dereferenceable(64) %1, i32 noundef %.012)
          to label %16 unwind label %19

16:                                               ; preds = %14
  %17 = invoke signext i8 @u_hasBinaryProperty_77(i32 noundef %15, i32 noundef 43)
          to label %18 unwind label %21

18:                                               ; preds = %16
  %.not = icmp eq i8 %17, 0
  br i1 %.not, label %23, label %25

19:                                               ; preds = %14
  %20 = landingpad { ptr, i32 }
          cleanup
  br label %29

21:                                               ; preds = %23, %16
  %22 = landingpad { ptr, i32 }
          cleanup
  br label %29

23:                                               ; preds = %18
  %24 = invoke noundef nonnull align 8 dereferenceable(64) ptr @_ZN6icu_7713UnicodeString6appendEi(ptr noundef nonnull align 8 dereferenceable(64) %0, i32 noundef %15)
          to label %25 unwind label %21

25:                                               ; preds = %23, %18
  %26 = invoke noundef i32 @_ZNK6icu_7713UnicodeString11moveIndex32Eii(ptr noundef nonnull align 8 dereferenceable(64) %1, i32 noundef %.012, i32 noundef 1)
          to label %12 unwind label %27, !llvm.loop !99

27:                                               ; preds = %25
  %28 = landingpad { ptr, i32 }
          cleanup
  br label %29

29:                                               ; preds = %27, %21, %19
  %.pn17.pn = phi { ptr, i32 } [ %28, %27 ], [ %22, %21 ], [ %20, %19 ]
  tail call void @_ZN6icu_7713UnicodeStringD1Ev(ptr noundef nonnull align 8 dereferenceable(64) %0) #13
  resume { ptr, i32 } %.pn17.pn

30:                                               ; preds = %12
  ret void
}